target datalayout = "e-m:e-p270:32:32-p271:32:32-p272:64:64-i64:64-i128:128-f80:128-n8:16:32:64-S128"
target triple = "x86_64-unknown-linux-gnu"

; Function Attrs: mustprogress uwtable
define void @_ZN3zmq12zap_client_t16send_zap_requestEPKcmPKhm(ptr noundef nonnull align 8 dereferenceable(72) %this, ptr noundef %mechanism_, i64 noundef %mechanism_length_, ptr noundef %credentials_, i64 noundef %credentials_size_) #0 align 2 {
entry:
  %this.addr = alloca ptr, align 8
  %mechanism_.addr = alloca ptr, align 8
  %mechanism_length_.addr = alloca i64, align 8
  %credentials_.addr = alloca ptr, align 8
  %credentials_size_.addr = alloca i64, align 8
  store ptr %this, ptr %this.addr, align 8
  store ptr %mechanism_, ptr %mechanism_.addr, align 8
  store i64 %mechanism_length_, ptr %mechanism_length_.addr, align 8
  store ptr %credentials_, ptr %credentials_.addr, align 8
  store i64 %credentials_size_, ptr %credentials_size_.addr, align 8
  %this1 = load ptr, ptr %this.addr, align 8
  %0 = load ptr, ptr %mechanism_.addr, align 8
  %1 = load i64, ptr %mechanism_length_.addr, align 8
  call void @_ZN3zmq12zap_client_t16send_zap_requestEPKcmPPKhPmm(ptr noundef nonnull align 8 dereferenceable(72) %this1, ptr noundef %0, i64 noundef %1, ptr noundef %credentials_.addr, ptr noundef %credentials_size_.addr, i64 noundef 1)
  ret void
}