; Function Attrs: mustprogress uwtable
define void @_ZN3zmq12zap_client_t16send_zap_requestEPKcmPKhm(ptr noundef nonnull align 8 dereferenceable(72) %this, ptr nocapture noundef readonly %mechanism_, i64 noundef %mechanism_length_, ptr noundef %credentials_, i64 noundef %credentials_size_) local_unnamed_addr #0 align 2 {
entry:
  %credentials_.addr = alloca ptr, align 8
  %credentials_size_.addr = alloca i64, align 8
  store ptr %credentials_, ptr %credentials_.addr, align 8
  store i64 %credentials_size_, ptr %credentials_size_.addr, align 8
  call void @_ZN3zmq12zap_client_t16send_zap_requestEPKcmPPKhPmm(ptr noundef nonnull align 8 dereferenceable(72) %this, ptr noundef %mechanism_, i64 noundef %mechanism_length_, ptr noundef nonnull %credentials_.addr, ptr noundef nonnull %credentials_size_.addr, i64 noundef 1)
  ret void
}